; Function Attrs: nounwind uwtable
define dso_local void @AppendIntegerCommandOption(ptr noundef %0, i1 noundef zeroext %1, ptr noundef %2, i32 noundef %3) local_unnamed_addr #0 {
  %5 = getelementptr inbounds nuw i8, ptr %0, i64 8
  %6 = load i64, ptr %5, align 8
  %.not.i = icmp eq i64 %6, 0
  br i1 %.not.i, label %AppendPlainCommandOption.exit, label %7

7:                                                ; preds = %4
  %8 = load ptr, ptr %0, align 8
  %9 = getelementptr i8, ptr %8, i64 %6
  %10 = getelementptr i8, ptr %9, i64 -1
  %11 = load i8, ptr %10, align 1
  %.not7.i = icmp eq i8 %11, 40
  br i1 %.not7.i, label %AppendPlainCommandOption.exit, label %12

12:                                               ; preds = %7
  br i1 %1, label %13, label %14

13:                                               ; preds = %12
  tail call void @appendPQExpBufferStr(ptr noundef nonnull %0, ptr noundef nonnull @.str.54) #15
  br label %AppendPlainCommandOption.exit

14:                                               ; preds = %12
  tail call void @appendPQExpBufferChar(ptr noundef nonnull %0, i8 noundef signext 32) #15
  br label %AppendPlainCommandOption.exit

AppendPlainCommandOption.exit:                    ; preds = %4, %7, %13, %14
  tail call void (ptr, ptr, ...) @appendPQExpBuffer(ptr noundef nonnull %0, ptr noundef nonnull @.str.55, ptr noundef %2) #15
  tail call void (ptr, ptr, ...) @appendPQExpBuffer(ptr noundef nonnull %0, ptr noundef nonnull @.str.57, i32 noundef %3) #15
  ret void
}